; Function Attrs: nofree norecurse nosync nounwind memory(argmem: readwrite) uwtable
define range(i32 -98, 1) i32 @sp_to_unsigned_bin_len(ptr noundef readonly captures(address_is_null) %0, ptr noundef writeonly captures(address_is_null) %1, i32 noundef %2) local_unnamed_addr #8 {
  %4 = icmp ne ptr %0, null
  %5 = icmp ne ptr %1, null
  %or.cond.not43 = and i1 %4, %5
  %6 = icmp sgt i32 %2, -1
  %or.cond3.not = and i1 %or.cond.not43, %6
  br i1 %or.cond3.not, label %7, label %.loopexit

7:                                                ; preds = %3
  %8 = load i16, ptr %0, align 8, !tbaa !12
  %9 = icmp ne i16 %8, 0
  %10 = icmp ne i32 %2, 0
  %or.cond = and i1 %9, %10
  br i1 %or.cond, label %.lr.ph, label %.critedge

.lr.ph:                                           ; preds = %7
  %11 = add nsw i32 %2, -1
  %12 = getelementptr inbounds nuw i8, ptr %0, i64 8
  br label %13

13:                                               ; preds = %.lr.ph, %.loopexit45
  %indvars.iv62 = phi i64 [ 0, %.lr.ph ], [ %indvars.iv.next63, %.loopexit45 ]
  %.152 = phi i32 [ %11, %.lr.ph ], [ %indvars, %.loopexit45 ]
  %14 = load i16, ptr %0, align 8, !tbaa !12
  %15 = zext i16 %14 to i64
  %16 = icmp samesign ult i64 %indvars.iv62, %15
  br i1 %16, label %17, label %.lr.ph59.preheader.loopexit

17:                                               ; preds = %13
  %18 = getelementptr inbounds nuw [129 x i64], ptr %12, i64 0, i64 %indvars.iv62
  %19 = load i64, ptr %18, align 8, !tbaa !8
  %20 = zext nneg i32 %.152 to i64
  br label %21

21:                                               ; preds = %17, %32
  %indvars.iv = phi i64 [ %20, %17 ], [ %indvars.iv.next, %32 ]
  %.050 = phi i64 [ %19, %17 ], [ %33, %32 ]
  %.03149 = phi i32 [ 0, %17 ], [ %34, %32 ]
  %22 = trunc i64 %.050 to i8
  %23 = getelementptr inbounds nuw i8, ptr %1, i64 %indvars.iv
  store i8 %22, ptr %23, align 1, !tbaa !13
  %24 = trunc nuw i64 %indvars.iv to i32
  %25 = icmp slt i32 %24, 1
  br i1 %25, label %.loopexit45.thread, label %32

.loopexit45.thread:                               ; preds = %21
  %26 = load i16, ptr %0, align 8, !tbaa !12
  %27 = zext i16 %26 to i64
  %28 = add nuw nsw i64 %27, 4294967295
  %29 = and i64 %28, 4294967295
  %30 = icmp samesign ult i64 %indvars.iv62, %29
  %31 = icmp ugt i64 %.050, 255
  %or.cond5 = select i1 %30, i1 true, i1 %31
  %spec.select44 = select i1 %or.cond5, i32 -98, i32 0
  br label %.loopexit

32:                                               ; preds = %21
  %33 = lshr i64 %.050, 8
  %indvars.iv.next = add nsw i64 %indvars.iv, -1
  %34 = add nuw nsw i32 %.03149, 8
  %35 = icmp samesign ult i32 %.03149, 56
  br i1 %35, label %21, label %.loopexit45, !llvm.loop !110

.loopexit45:                                      ; preds = %32
  %indvars = trunc i64 %indvars.iv.next to i32
  %indvars.iv.next63 = add nuw nsw i64 %indvars.iv62, 1
  %36 = icmp sgt i32 %indvars, -1
  br i1 %36, label %13, label %.loopexit, !llvm.loop !111

.critedge:                                        ; preds = %7
  %37 = icmp sgt i32 %2, 0
  br i1 %37, label %.lr.ph59.preheader, label %.loopexit

.lr.ph59.preheader.loopexit:                      ; preds = %13
  %38 = add nuw i32 %.152, 1
  br label %.lr.ph59.preheader

.lr.ph59.preheader:                               ; preds = %.lr.ph59.preheader.loopexit, %.critedge
  %.03379 = phi i32 [ %2, %.critedge ], [ %38, %.lr.ph59.preheader.loopexit ]
  %39 = zext i32 %.03379 to i64
  tail call void @llvm.memset.p0.i64(ptr noundef nonnull align 1 dereferenceable(1) %1, i8 0, i64 %39, i1 false), !tbaa !13
  br label %.loopexit

.loopexit:                                        ; preds = %.loopexit45, %.loopexit45.thread, %.lr.ph59.preheader, %.critedge, %3
  %.135 = phi i32 [ -98, %3 ], [ 0, %.critedge ], [ 0, %.lr.ph59.preheader ], [ %spec.select44, %.loopexit45.thread ], [ 0, %.loopexit45 ]
  ret i32 %.135
}